target datalayout = "e-m:e-p270:32:32-p271:32:32-p272:64:64-i64:64-i128:128-f80:128-n8:16:32:64-S128"
target triple = "x86_64-pc-linux-gnu"

%struct.zlib_writer = type { %struct.Curl_cwriter, i32, i32, %struct.z_stream_s }
%struct.Curl_cwriter = type { ptr, ptr, ptr, i32 }
%struct.z_stream_s = type { ptr, i32, i64, ptr, i32, i64, ptr, ptr, ptr, ptr, ptr, i32, i64, i64 }

@.str.12 = private unnamed_addr constant [6 x i8] c"1.3.1\00", align 1
@.str.13 = private unnamed_addr constant [46 x i8] c"Error while processing content unencoding: %s\00", align 1
@.str.14 = private unnamed_addr constant [90 x i8] c"Error while processing content unencoding: Unknown failure within decompression software.\00", align 1

; Function Attrs: nounwind uwtable
define internal i32 @process_zlib_error(ptr noundef %0, ptr noundef %1) #0 {
  %3 = alloca ptr, align 8
  %4 = alloca ptr, align 8
  store ptr %0, ptr %3, align 8, !tbaa !21
  store ptr %1, ptr %4, align 8, !tbaa !106
  %5 = load ptr, ptr %4, align 8, !tbaa !106
  %6 = getelementptr inbounds nuw %struct.z_stream_s, ptr %5, i32 0, i32 6
  %7 = load ptr, ptr %6, align 8, !tbaa !119
  %8 = icmp ne ptr %7, null
  br i1 %8, label %9, label %14

9:                                                ; preds = %2
  %10 = load ptr, ptr %3, align 8, !tbaa !21
  %11 = load ptr, ptr %4, align 8, !tbaa !106
  %12 = getelementptr inbounds nuw %struct.z_stream_s, ptr %11, i32 0, i32 6
  %13 = load ptr, ptr %12, align 8, !tbaa !119
  call void (ptr, ptr, ...) @Curl_failf(ptr noundef %10, ptr noundef @.str.13, ptr noundef %13)
  br label %16

14:                                               ; preds = %2
  %15 = load ptr, ptr %3, align 8, !tbaa !21
  call void (ptr, ptr, ...) @Curl_failf(ptr noundef %15, ptr noundef @.str.14)
  br label %16

16:                                               ; preds = %14, %9
  ret i32 61
}

; Function Attrs: nounwind uwtable
define internal i32 @deflate_do_init(ptr noundef %0, ptr noundef %1) #0 {
  %3 = alloca i32, align 4
  %4 = alloca ptr, align 8
  %5 = alloca ptr, align 8
  %6 = alloca ptr, align 8
  %7 = alloca ptr, align 8
  %8 = alloca i32, align 4
  store ptr %0, ptr %4, align 8, !tbaa !21
  store ptr %1, ptr %5, align 8, !tbaa !99
  call void @llvm.lifetime.start.p0(i64 8, ptr %6) #6
  %9 = load ptr, ptr %5, align 8, !tbaa !99
  store ptr %9, ptr %6, align 8, !tbaa !104
  call void @llvm.lifetime.start.p0(i64 8, ptr %7) #6
  %10 = load ptr, ptr %6, align 8, !tbaa !104
  %11 = getelementptr inbounds nuw %struct.zlib_writer, ptr %10, i32 0, i32 3
  store ptr %11, ptr %7, align 8, !tbaa !106
  %12 = load ptr, ptr %7, align 8, !tbaa !106
  %13 = getelementptr inbounds nuw %struct.z_stream_s, ptr %12, i32 0, i32 8
  store ptr @zalloc_cb, ptr %13, align 8, !tbaa !108
  %14 = load ptr, ptr %7, align 8, !tbaa !106
  %15 = getelementptr inbounds nuw %struct.z_stream_s, ptr %14, i32 0, i32 9
  store ptr @zfree_cb, ptr %15, align 8, !tbaa !111
  %16 = load ptr, ptr %7, align 8, !tbaa !106
  %17 = call i32 @cm_zlib_inflateInit_(ptr noundef %16, ptr noundef @.str.12, i32 noundef 112)
  %18 = icmp ne i32 %17, 0
  br i1 %18, label %19, label %23

19:                                               ; preds = %2
  %20 = load ptr, ptr %4, align 8, !tbaa !21
  %21 = load ptr, ptr %7, align 8, !tbaa !106
  %22 = call i32 @process_zlib_error(ptr noundef %20, ptr noundef %21)
  store i32 %22, ptr %3, align 4
  store i32 1, ptr %8, align 4
  br label %26

23:                                               ; preds = %2
  %24 = load ptr, ptr %6, align 8, !tbaa !104
  %25 = getelementptr inbounds nuw %struct.zlib_writer, ptr %24, i32 0, i32 1
  store i32 1, ptr %25, align 8, !tbaa !112
  store i32 0, ptr %3, align 4
  store i32 1, ptr %8, align 4
  br label %26

26:                                               ; preds = %23, %19
  call void @llvm.lifetime.end.p0(i64 8, ptr %7) #6
  call void @llvm.lifetime.end.p0(i64 8, ptr %6) #6
  %27 = load i32, ptr %3, align 4
  ret i32 %27
}