; Function Attrs: nounwind uwtable
define internal range(i32 0, 62) i32 @deflate_do_init(ptr noundef %0, ptr noundef initializes((104, 120)) %1) #0 {
  %3 = getelementptr inbounds nuw i8, ptr %1, i64 40
  %4 = getelementptr inbounds nuw i8, ptr %1, i64 104
  store ptr @zalloc_cb, ptr %4, align 8, !tbaa !92
  %5 = getelementptr inbounds nuw i8, ptr %1, i64 112
  store ptr @zfree_cb, ptr %5, align 8, !tbaa !95
  %6 = tail call i32 @cm_zlib_inflateInit_(ptr noundef nonnull %3, ptr noundef nonnull @.str.12, i32 noundef 112) #8
  %.not = icmp eq i32 %6, 0
  br i1 %.not, label %11, label %7

7:                                                ; preds = %2
  %8 = getelementptr i8, ptr %1, i64 88
  %.val = load ptr, ptr %8, align 8, !tbaa !96
  %.not.i = icmp eq ptr %.val, null
  br i1 %.not.i, label %10, label %9

9:                                                ; preds = %7
  tail call void (ptr, ptr, ...) @Curl_failf(ptr noundef %0, ptr noundef nonnull @.str.13, ptr noundef nonnull %.val) #8
  br label %process_zlib_error.exit

10:                                               ; preds = %7
  tail call void (ptr, ptr, ...) @Curl_failf(ptr noundef %0, ptr noundef nonnull @.str.14) #8
  br label %process_zlib_error.exit

11:                                               ; preds = %2
  %12 = getelementptr inbounds nuw i8, ptr %1, i64 32
  store i32 1, ptr %12, align 8, !tbaa !97
  br label %process_zlib_error.exit

process_zlib_error.exit:                          ; preds = %10, %9, %11
  %.0 = phi i32 [ 0, %11 ], [ 61, %9 ], [ 61, %10 ]
  ret i32 %.0
}